target datalayout = "e-m:e-p270:32:32-p271:32:32-p272:64:64-i64:64-i128:128-f80:128-n8:16:32:64-S128"
target triple = "x86_64-pc-linux-gnu"

%struct.Rtm_Obj_t_ = type { ptr, i32, i32, i32, i32, [0 x ptr] }

; Function Attrs: inlinehint nounwind uwtable
define internal ptr @Rtm_ObjEdge(ptr noundef %0, i32 noundef %1) #5 {
  %3 = alloca ptr, align 8
  %4 = alloca i32, align 4
  store ptr %0, ptr %3, align 8, !tbaa !40
  store i32 %1, ptr %4, align 4, !tbaa !21
  %5 = load ptr, ptr %3, align 8, !tbaa !40
  %6 = getelementptr inbounds nuw %struct.Rtm_Obj_t_, ptr %5, i32 0, i32 5
  %7 = getelementptr inbounds [0 x ptr], ptr %6, i64 0, i64 0
  %8 = load i32, ptr %4, align 4, !tbaa !21
  %9 = mul nsw i32 2, %8
  %10 = sext i32 %9 to i64
  %11 = getelementptr inbounds ptr, ptr %7, i64 %10
  %12 = getelementptr inbounds ptr, ptr %11, i64 1
  ret ptr %12
}

; Function Attrs: nounwind uwtable
define i32 @Rtm_ObjCheckRetimeFwd(ptr noundef %0) #0 {
  %2 = alloca i32, align 4
  %3 = alloca ptr, align 8
  %4 = alloca ptr, align 8
  %5 = alloca i32, align 4
  %6 = alloca i32, align 4
  store ptr %0, ptr %3, align 8, !tbaa !40
  call void @llvm.lifetime.start.p0(i64 8, ptr %4) #11
  call void @llvm.lifetime.start.p0(i64 4, ptr %5) #11
  store i32 0, ptr %5, align 4, !tbaa !21
  br label %7

7:                                                ; preds = %32, %1
  %8 = load i32, ptr %5, align 4, !tbaa !21
  %9 = load ptr, ptr %3, align 8, !tbaa !40
  %10 = getelementptr inbounds nuw %struct.Rtm_Obj_t_, ptr %9, i32 0, i32 1
  %11 = load i32, ptr %10, align 8
  %12 = lshr i32 %11, 7
  %13 = and i32 %12, 255
  %14 = zext i32 %13 to i64
  %15 = trunc i64 %14 to i32
  %16 = icmp slt i32 %8, %15
  br i1 %16, label %17, label %21

17:                                               ; preds = %7
  %18 = load ptr, ptr %3, align 8, !tbaa !40
  %19 = load i32, ptr %5, align 4, !tbaa !21
  %20 = call ptr @Rtm_ObjEdge(ptr noundef %18, i32 noundef %19)
  store ptr %20, ptr %4, align 8, !tbaa !8
  br label %21

21:                                               ; preds = %17, %7
  %22 = phi i1 [ false, %7 ], [ true, %17 ]
  br i1 %22, label %23, label %35

23:                                               ; preds = %21
  %24 = load ptr, ptr %4, align 8, !tbaa !8
  %25 = load i32, ptr %24, align 8
  %26 = and i32 %25, 4095
  %27 = zext i32 %26 to i64
  %28 = trunc i64 %27 to i32
  %29 = icmp eq i32 %28, 0
  br i1 %29, label %30, label %31

30:                                               ; preds = %23
  store i32 0, ptr %2, align 4
  store i32 1, ptr %6, align 4
  br label %36

31:                                               ; preds = %23
  br label %32

32:                                               ; preds = %31
  %33 = load i32, ptr %5, align 4, !tbaa !21
  %34 = add nsw i32 %33, 1
  store i32 %34, ptr %5, align 4, !tbaa !21
  br label %7, !llvm.loop !50

35:                                               ; preds = %21
  store i32 1, ptr %2, align 4
  store i32 1, ptr %6, align 4
  br label %36

36:                                               ; preds = %35, %30
  call void @llvm.lifetime.end.p0(i64 4, ptr %5) #11
  call void @llvm.lifetime.end.p0(i64 8, ptr %4) #11
  %37 = load i32, ptr %2, align 4
  ret i32 %37
}