; Function Attrs: nofree norecurse nosync nounwind memory(argmem: read) uwtable
define range(i32 0, 2) i32 @Rtm_ObjCheckRetimeFwd(ptr noundef readonly captures(none) %0) local_unnamed_addr #10 {
  %2 = getelementptr inbounds nuw i8, ptr %0, i64 8
  %3 = load i32, ptr %2, align 8
  %4 = lshr i32 %3, 7
  %5 = and i32 %4, 255
  %invariant.gep = getelementptr inbounds nuw i8, ptr %0, i64 32
  %.not = icmp eq i32 %5, 0
  br i1 %.not, label %.critedge, label %.lr.ph.preheader

.lr.ph.preheader:                                 ; preds = %1
  %wide.trip.count = zext nneg i32 %5 to i64
  br label %.lr.ph

6:                                                ; preds = %.lr.ph
  %indvars.iv.next = add nuw nsw i64 %indvars.iv, 1
  %exitcond.not = icmp eq i64 %indvars.iv.next, %wide.trip.count
  br i1 %exitcond.not, label %.critedge, label %.lr.ph, !llvm.loop !42

.lr.ph:                                           ; preds = %.lr.ph.preheader, %6
  %indvars.iv = phi i64 [ 0, %.lr.ph.preheader ], [ %indvars.iv.next, %6 ]
  %gep.idx = shl nuw nsw i64 %indvars.iv, 4
  %gep = getelementptr inbounds nuw i8, ptr %invariant.gep, i64 %gep.idx
  %7 = load i32, ptr %gep, align 8
  %8 = and i32 %7, 4095
  %9 = icmp eq i32 %8, 0
  br i1 %9, label %.critedge, label %6

.critedge:                                        ; preds = %.lr.ph, %6, %1
  %.06 = phi i32 [ 1, %1 ], [ 1, %6 ], [ 0, %.lr.ph ]
  ret i32 %.06
}